; Function Attrs: mustprogress uwtable
define internal noundef zeroext i1 @"_ZNSt17_Function_handlerIFSt10shared_ptrIN32pxrInternal_v0_24__pxrReserved__21HdContainerDataSourceEEvEZNS1_L13_BuildNetworkERKNS1_22UsdShadeConnectableAPIERKNS1_7TfTokenERKNS1_32UsdImagingDataSourceStageGlobalsESA_RKNS1_7SdfPathERKNS1_19HdDataSourceLocatorEE3$_0E10_M_managerERSt9_Any_dataRKSM_St18_Manager_operation"(ptr nocapture noundef nonnull align 8 dereferenceable(16) %0, ptr nocapture noundef nonnull readonly align 8 dereferenceable(16) %1, i32 noundef %2) #5 align 2 personality ptr @__gxx_personality_v0 {
  switch i32 %2, label %"_ZNSt14_Function_base13_Base_managerIZN32pxrInternal_v0_24__pxrReserved__L13_BuildNetworkERKNS1_22UsdShadeConnectableAPIERKNS1_7TfTokenERKNS1_32UsdImagingDataSourceStageGlobalsES7_RKNS1_7SdfPathERKNS1_19HdDataSourceLocatorEE3$_0E10_M_managerERSt9_Any_dataRKSJ_St18_Manager_operation.exit" [
    i32 0, label %4
    i32 1, label %5
    i32 3, label %10
    i32 2, label %6
  ]

4:                                                ; preds = %3
  store ptr @"_ZTIZN32pxrInternal_v0_24__pxrReserved__L13_BuildNetworkERKNS_22UsdShadeConnectableAPIERKNS_7TfTokenERKNS_32UsdImagingDataSourceStageGlobalsES5_RKNS_7SdfPathERKNS_19HdDataSourceLocatorEE3$_0", ptr %0, align 8
  br label %"_ZNSt14_Function_base13_Base_managerIZN32pxrInternal_v0_24__pxrReserved__L13_BuildNetworkERKNS1_22UsdShadeConnectableAPIERKNS1_7TfTokenERKNS1_32UsdImagingDataSourceStageGlobalsES7_RKNS1_7SdfPathERKNS1_19HdDataSourceLocatorEE3$_0E10_M_managerERSt9_Any_dataRKSJ_St18_Manager_operation.exit"

5:                                                ; preds = %3
  %.val = load ptr, ptr %1, align 8
  store ptr %.val, ptr %0, align 8
  br label %"_ZNSt14_Function_base13_Base_managerIZN32pxrInternal_v0_24__pxrReserved__L13_BuildNetworkERKNS1_22UsdShadeConnectableAPIERKNS1_7TfTokenERKNS1_32UsdImagingDataSourceStageGlobalsES7_RKNS1_7SdfPathERKNS1_19HdDataSourceLocatorEE3$_0E10_M_managerERSt9_Any_dataRKSJ_St18_Manager_operation.exit"

6:                                                ; preds = %3
  %.val6 = load ptr, ptr %1, align 8
  %7 = tail call noalias noundef nonnull dereferenceable(24) ptr @_Znwm(i64 noundef 24) #26
  invoke void @_ZN32pxrInternal_v0_24__pxrReserved__13UsdSchemaBaseC2ERKS0_(ptr noundef nonnull align 8 dereferenceable(24) %7, ptr noundef nonnull align 8 dereferenceable(24) %.val6)
          to label %"_ZNSt14_Function_base13_Base_managerIZN32pxrInternal_v0_24__pxrReserved__L13_BuildNetworkERKNS1_22UsdShadeConnectableAPIERKNS1_7TfTokenERKNS1_32UsdImagingDataSourceStageGlobalsES7_RKNS1_7SdfPathERKNS1_19HdDataSourceLocatorEE3$_0E15_M_init_functorIRKSH_EEvRSt9_Any_dataOT_.exit.i" unwind label %8

8:                                                ; preds = %6
  %9 = landingpad { ptr, i32 }
          cleanup
  tail call void @_ZdlPvm(ptr noundef nonnull %7, i64 noundef 24) #25
  resume { ptr, i32 } %9

"_ZNSt14_Function_base13_Base_managerIZN32pxrInternal_v0_24__pxrReserved__L13_BuildNetworkERKNS1_22UsdShadeConnectableAPIERKNS1_7TfTokenERKNS1_32UsdImagingDataSourceStageGlobalsES7_RKNS1_7SdfPathERKNS1_19HdDataSourceLocatorEE3$_0E15_M_init_functorIRKSH_EEvRSt9_Any_dataOT_.exit.i": ; preds = %6
  store ptr getelementptr inbounds inrange(-16, 48) (i8, ptr @_ZTVN32pxrInternal_v0_24__pxrReserved__16UsdShadeMaterialE, i64 16), ptr %7, align 8
  store ptr %7, ptr %0, align 8
  br label %"_ZNSt14_Function_base13_Base_managerIZN32pxrInternal_v0_24__pxrReserved__L13_BuildNetworkERKNS1_22UsdShadeConnectableAPIERKNS1_7TfTokenERKNS1_32UsdImagingDataSourceStageGlobalsES7_RKNS1_7SdfPathERKNS1_19HdDataSourceLocatorEE3$_0E10_M_managerERSt9_Any_dataRKSJ_St18_Manager_operation.exit"

10:                                               ; preds = %3
  %.val7.i = load ptr, ptr %0, align 8
  %11 = icmp eq ptr %.val7.i, null
  br i1 %11, label %"_ZNSt14_Function_base13_Base_managerIZN32pxrInternal_v0_24__pxrReserved__L13_BuildNetworkERKNS1_22UsdShadeConnectableAPIERKNS1_7TfTokenERKNS1_32UsdImagingDataSourceStageGlobalsES7_RKNS1_7SdfPathERKNS1_19HdDataSourceLocatorEE3$_0E10_M_managerERSt9_Any_dataRKSJ_St18_Manager_operation.exit", label %12

12:                                               ; preds = %10
  tail call void @_ZN32pxrInternal_v0_24__pxrReserved__16UsdShadeMaterialD1Ev(ptr noundef nonnull align 8 dereferenceable(24) %.val7.i) #24
  tail call void @_ZdlPvm(ptr noundef nonnull %.val7.i, i64 noundef 24) #25
  br label %"_ZNSt14_Function_base13_Base_managerIZN32pxrInternal_v0_24__pxrReserved__L13_BuildNetworkERKNS1_22UsdShadeConnectableAPIERKNS1_7TfTokenERKNS1_32UsdImagingDataSourceStageGlobalsES7_RKNS1_7SdfPathERKNS1_19HdDataSourceLocatorEE3$_0E10_M_managerERSt9_Any_dataRKSJ_St18_Manager_operation.exit"

"_ZNSt14_Function_base13_Base_managerIZN32pxrInternal_v0_24__pxrReserved__L13_BuildNetworkERKNS1_22UsdShadeConnectableAPIERKNS1_7TfTokenERKNS1_32UsdImagingDataSourceStageGlobalsES7_RKNS1_7SdfPathERKNS1_19HdDataSourceLocatorEE3$_0E10_M_managerERSt9_Any_dataRKSJ_St18_Manager_operation.exit": ; preds = %3, %12, %10, %"_ZNSt14_Function_base13_Base_managerIZN32pxrInternal_v0_24__pxrReserved__L13_BuildNetworkERKNS1_22UsdShadeConnectableAPIERKNS1_7TfTokenERKNS1_32UsdImagingDataSourceStageGlobalsES7_RKNS1_7SdfPathERKNS1_19HdDataSourceLocatorEE3$_0E15_M_init_functorIRKSH_EEvRSt9_Any_dataOT_.exit.i", %5, %4
  ret i1 false
}